Certificate:
    Data:
        Version: 3 (0x2)
        Serial Number:
            32:a3:68:69:77:3e:76:03:b3:04:db:8d:d5:3f:7c:61
        Signature Algorithm: sha256WithRSAEncryption
        Issuer: CN=lingma.vip
        Validity
            Not Before: Mar  1 09:42:58 2023 GMT
            Not After : Jun  3 09:42:58 2025 GMT
        Subject: CN=rhmonitor
        Subject Public Key Info:
            Public Key Algorithm: rsaEncryption
                RSA Public-Key: (2048 bit)
                Modulus:
                    00:ae:69:02:57:39:53:90:19:8d:29:3f:cc:71:32:
                    40:0d:2b:ef:2d:d4:63:eb:e2:85:26:f6:5a:bc:ca:
                    2d:f5:16:af:2f:c9:ef:e5:04:3a:a2:b5:3b:8f:88:
                    21:e4:95:d2:99:5a:dd:f3:ce:0d:20:db:2a:19:52:
                    78:40:e0:e9:ba:c3:ba:8a:42:72:b6:eb:0c:b4:c0:
                    5c:0d:53:92:46:9d:9f:c7:b8:c0:d5:d9:4b:a0:18:
                    63:8d:8f:fb:20:27:9d:8b:0b:8c:47:e8:fa:6a:3c:
                    97:5f:2c:b4:1f:21:32:62:0b:7e:29:b2:65:57:70:
                    9d:4a:ae:0c:54:96:80:35:7d:8a:ab:0d:21:56:f4:
                    98:10:db:7d:12:0e:6f:37:b0:fb:45:b8:cc:70:9a:
                    dd:45:44:9d:a1:50:69:9b:3f:a4:3b:71:37:31:6a:
                    43:04:75:40:b4:e9:3f:73:58:45:0c:1f:79:76:5f:
                    fa:71:ba:ff:b6:cd:e6:14:92:e8:32:02:dc:f0:da:
                    25:b8:84:bc:8b:c4:20:37:18:49:e6:41:05:6d:18:
                    4b:05:6e:77:71:f0:21:d3:23:22:e9:dd:cc:e7:ec:
                    42:49:96:9c:8d:e7:9a:5d:94:2b:79:17:bd:35:d5:
                    30:2b:59:bf:0a:25:c7:aa:73:7f:ef:64:ff:aa:c8:
                    7d:c7
                Exponent: 65537 (0x10001)
        X509v3 extensions:
            X509v3 Basic Constraints: 
                CA:FALSE
            X509v3 Subject Key Identifier: 
                C7:12:89:C5:68:C7:7B:66:53:55:93:8A:C0:C9:BE:A6:08:3E:2E:B5
            X509v3 Authority Key Identifier: 
                keyid:4D:E1:AF:6B:48:31:25:E1:27:16:4C:0F:87:96:B7:AF:3F:61:98:1F
                DirName:/CN=lingma.vip
                serial:45:3D:50:C0:F8:BC:CD:0F:FA:68:E0:92:5A:6B:89:4F:FB:6D:EE:A2

            X509v3 Extended Key Usage: 
                TLS Web Client Authentication
            X509v3 Key Usage: 
                Digital Signature
    Signature Algorithm: sha256WithRSAEncryption
         1f:22:6c:0f:1d:9d:6f:81:70:aa:db:a6:d5:16:2d:b2:6e:4c:
         22:b3:80:9d:54:e3:ca:81:6c:b9:c3:a1:14:80:73:d5:87:05:
         8b:66:d0:ac:f5:87:9b:6f:d7:37:0e:76:31:15:34:6a:f6:63:
         8c:83:77:c9:eb:08:e2:2a:f1:b6:ab:b5:1c:f3:26:5a:51:61:
         d7:52:56:ff:93:53:39:88:a0:53:1e:02:07:08:9e:32:5c:ea:
         a5:97:eb:8a:4f:aa:ae:e7:27:a6:5a:5e:a3:7e:68:08:d4:db:
         01:cb:61:97:cf:2e:c1:f0:d4:fc:35:72:ce:25:01:05:f7:af:
         c2:58:3f:85:e2:e8:c4:ab:cc:46:7a:4c:f5:71:d4:7e:59:39:
         52:f2:73:19:fe:ab:4b:27:99:2c:9b:a5:42:e2:c5:24:c6:1b:
         c6:a9:d4:85:ae:9c:22:47:23:e0:d5:2b:fd:a6:03:7f:1c:e8:
         63:0c:5d:20:cb:ce:be:85:06:d7:c1:49:7e:45:58:6a:92:a3:
         33:07:2f:6f:cf:45:f2:6b:14:9e:d1:88:49:f9:94:92:bf:10:
         b1:e3:c4:20:37:91:28:02:8e:e9:05:12:c5:cd:1b:26:f2:df:
         19:97:5b:45:76:a0:ca:9f:ea:8e:27:51:7d:c5:fa:de:63:e4:
         26:86:37:5f
-----BEGIN CERTIFICATE-----
MIIDVTCCAj2gAwIBAgIQMqNoaXc+dgOzBNuN1T98YTANBgkqhkiG9w0BAQsFADAV
MRMwEQYDVQQDDApsaW5nbWEudmlwMB4XDTIzMDMwMTA5NDI1OFoXDTI1MDYwMzA5
NDI1OFowFDESMBAGA1UEAwwJcmhtb25pdG9yMIIBIjANBgkqhkiG9w0BAQEFAAOC
AQ8AMIIBCgKCAQEArmkCVzlTkBmNKT/McTJADSvvLdRj6+KFJvZavMot9RavL8nv
5QQ6orU7j4gh5JXSmVrd884NINsqGVJ4QODpusO6ikJytusMtMBcDVOSRp2fx7jA
1dlLoBhjjY/7ICediwuMR+j6ajyXXyy0HyEyYgt+KbJlV3CdSq4MVJaANX2Kqw0h
VvSYENt9Eg5vN7D7RbjMcJrdRUSdoVBpmz+kO3E3MWpDBHVAtOk/c1hFDB95dl/6
cbr/ts3mFJLoMgLc8NoluIS8i8QgNxhJ5kEFbRhLBW53cfAh0yMi6d3M5+xCSZac
jeeaXZQreRe9NdUwK1m/CiXHqnN/72T/qsh9xwIDAQABo4GhMIGeMAkGA1UdEwQC
MAAwHQYDVR0OBBYEFMcSicVox3tmU1WTisDJvqYIPi61MFAGA1UdIwRJMEeAFE3h
r2tIMSXhJxZMD4eWt68/YZgfoRmkFzAVMRMwEQYDVQQDDApsaW5nbWEudmlwghRF
PVDA+LzND/po4JJaa4lP+23uojATBgNVHSUEDDAKBggrBgEFBQcDAjALBgNVHQ8E
BAMCB4AwDQYJKoZIhvcNAQELBQADggEBAB8ibA8dnW+BcKrbptUWLbJuTCKzgJ1U
48qBbLnDoRSAc9WHBYtm0Kz1h5tv1zcOdjEVNGr2Y4yDd8nrCOIq8bartRzzJlpR
YddSVv+TUzmIoFMeAgcInjJc6qWX64pPqq7nJ6ZaXqN+aAjU2wHLYZfPLsHw1Pw1
cs4lAQX3r8JYP4Xi6MSrzEZ6TPVx1H5ZOVLycxn+q0snmSybpULixSTGG8ap1IWu
nCJHI+DVK/2mA38c6GMMXSDLzr6FBtfBSX5FWGqSozMHL2/PRfJrFJ7RiEn5lJK/
ELHjxCA3kSgCjukFEsXNGyby3xmXW0V2oMqf6o4nUX3F+t5j5CaGN18=
-----END CERTIFICATE-----
